target datalayout = "e-m:e-p270:32:32-p271:32:32-p272:64:64-i64:64-i128:128-f80:128-n8:16:32:64-S128"
target triple = "x86_64-pc-linux-gnu"

%struct.ForEachState = type { ptr, i32 }
%struct.List = type { i32, i32, i32, ptr, [0 x %union.ListCell] }
%union.ListCell = type { ptr }
%struct.ExtensionControlFile = type { ptr, ptr, ptr, ptr, ptr, ptr, i8, i8, i8, i32, ptr, ptr }
%struct.ExtensionVersionInfo = type { ptr, ptr, i8, i8, i32, ptr }
%struct.dirent = type { i64, i64, i16, i8, [256 x i8] }

@.str.10 = private unnamed_addr constant [3 x i8] c"--\00", align 1
@.str.108 = private unnamed_addr constant [5 x i8] c".sql\00", align 1

; Function Attrs: nounwind uwtable
define internal ptr @get_ext_ver_info(ptr noundef %0, ptr noundef %1) #0 {
  %3 = alloca ptr, align 8
  %4 = alloca ptr, align 8
  %5 = alloca ptr, align 8
  %6 = alloca ptr, align 8
  %7 = alloca ptr, align 8
  %8 = alloca %struct.ForEachState, align 8
  %9 = alloca i32, align 4
  store ptr %0, ptr %4, align 8
  store ptr %1, ptr %5, align 8
  call void @llvm.lifetime.start.p0(i64 8, ptr %6) #12
  call void @llvm.lifetime.start.p0(i64 8, ptr %7) #12
  call void @llvm.lifetime.start.p0(i64 16, ptr %8) #12
  %10 = getelementptr inbounds nuw %struct.ForEachState, ptr %8, i32 0, i32 0
  %11 = load ptr, ptr %5, align 8
  %12 = load ptr, ptr %11, align 8
  store ptr %12, ptr %10, align 8
  %13 = getelementptr inbounds nuw %struct.ForEachState, ptr %8, i32 0, i32 1
  store i32 0, ptr %13, align 8
  %14 = getelementptr i8, ptr %8, i64 12
  call void @llvm.memset.p0.i64(ptr align 4 %14, i8 0, i64 4, i1 false)
  br label %15

15:                                               ; preds = %53, %2
  %16 = getelementptr inbounds nuw %struct.ForEachState, ptr %8, i32 0, i32 0
  %17 = load ptr, ptr %16, align 8
  %18 = icmp ne ptr %17, null
  br i1 %18, label %19, label %36

19:                                               ; preds = %15
  %20 = getelementptr inbounds nuw %struct.ForEachState, ptr %8, i32 0, i32 1
  %21 = load i32, ptr %20, align 8
  %22 = getelementptr inbounds nuw %struct.ForEachState, ptr %8, i32 0, i32 0
  %23 = load ptr, ptr %22, align 8
  %24 = getelementptr inbounds nuw %struct.List, ptr %23, i32 0, i32 1
  %25 = load i32, ptr %24, align 4
  %26 = icmp slt i32 %21, %25
  br i1 %26, label %27, label %36

27:                                               ; preds = %19
  %28 = getelementptr inbounds nuw %struct.ForEachState, ptr %8, i32 0, i32 0
  %29 = load ptr, ptr %28, align 8
  %30 = getelementptr inbounds nuw %struct.List, ptr %29, i32 0, i32 3
  %31 = load ptr, ptr %30, align 8
  %32 = getelementptr inbounds nuw %struct.ForEachState, ptr %8, i32 0, i32 1
  %33 = load i32, ptr %32, align 8
  %34 = sext i32 %33 to i64
  %35 = getelementptr inbounds %union.ListCell, ptr %31, i64 %34
  store ptr %35, ptr %7, align 8
  br label %37

36:                                               ; preds = %19, %15
  store ptr null, ptr %7, align 8
  br label %37

37:                                               ; preds = %36, %27
  %38 = phi i32 [ 1, %27 ], [ 0, %36 ]
  %39 = icmp ne i32 %38, 0
  br i1 %39, label %41, label %40

40:                                               ; preds = %37
  store i32 2, ptr %9, align 4
  br label %57

41:                                               ; preds = %37
  %42 = load ptr, ptr %7, align 8
  %43 = load ptr, ptr %42, align 8
  store ptr %43, ptr %6, align 8
  %44 = load ptr, ptr %6, align 8
  %45 = getelementptr inbounds nuw %struct.ExtensionVersionInfo, ptr %44, i32 0, i32 0
  %46 = load ptr, ptr %45, align 8
  %47 = load ptr, ptr %4, align 8
  %48 = call i32 @strcmp(ptr noundef %46, ptr noundef %47) #14
  %49 = icmp eq i32 %48, 0
  br i1 %49, label %50, label %52

50:                                               ; preds = %41
  %51 = load ptr, ptr %6, align 8
  store ptr %51, ptr %3, align 8
  store i32 1, ptr %9, align 4
  br label %57

52:                                               ; preds = %41
  br label %53

53:                                               ; preds = %52
  %54 = getelementptr inbounds nuw %struct.ForEachState, ptr %8, i32 0, i32 1
  %55 = load i32, ptr %54, align 8
  %56 = add i32 %55, 1
  store i32 %56, ptr %54, align 8
  br label %15, !llvm.loop !30

57:                                               ; preds = %50, %40
  call void @llvm.lifetime.end.p0(i64 16, ptr %8) #12
  %58 = load i32, ptr %9, align 4
  switch i32 %58, label %81 [
    i32 2, label %59
  ]

59:                                               ; preds = %57
  %60 = call ptr @palloc(i64 noundef 32)
  store ptr %60, ptr %6, align 8
  %61 = load ptr, ptr %4, align 8
  %62 = call ptr @pstrdup(ptr noundef %61)
  %63 = load ptr, ptr %6, align 8
  %64 = getelementptr inbounds nuw %struct.ExtensionVersionInfo, ptr %63, i32 0, i32 0
  store ptr %62, ptr %64, align 8
  %65 = load ptr, ptr %6, align 8
  %66 = getelementptr inbounds nuw %struct.ExtensionVersionInfo, ptr %65, i32 0, i32 1
  store ptr null, ptr %66, align 8
  %67 = load ptr, ptr %6, align 8
  %68 = getelementptr inbounds nuw %struct.ExtensionVersionInfo, ptr %67, i32 0, i32 2
  store i8 0, ptr %68, align 8
  %69 = load ptr, ptr %6, align 8
  %70 = getelementptr inbounds nuw %struct.ExtensionVersionInfo, ptr %69, i32 0, i32 3
  store i8 0, ptr %70, align 1
  %71 = load ptr, ptr %6, align 8
  %72 = getelementptr inbounds nuw %struct.ExtensionVersionInfo, ptr %71, i32 0, i32 4
  store i32 2147483647, ptr %72, align 4
  %73 = load ptr, ptr %6, align 8
  %74 = getelementptr inbounds nuw %struct.ExtensionVersionInfo, ptr %73, i32 0, i32 5
  store ptr null, ptr %74, align 8
  %75 = load ptr, ptr %5, align 8
  %76 = load ptr, ptr %75, align 8
  %77 = load ptr, ptr %6, align 8
  %78 = call ptr @lappend(ptr noundef %76, ptr noundef %77)
  %79 = load ptr, ptr %5, align 8
  store ptr %78, ptr %79, align 8
  %80 = load ptr, ptr %6, align 8
  store ptr %80, ptr %3, align 8
  store i32 1, ptr %9, align 4
  br label %81

81:                                               ; preds = %59, %57
  call void @llvm.lifetime.end.p0(i64 8, ptr %7) #12
  call void @llvm.lifetime.end.p0(i64 8, ptr %6) #12
  %82 = load ptr, ptr %3, align 8
  ret ptr %82
}

; Function Attrs: nounwind uwtable
define internal zeroext i1 @is_extension_script_filename(ptr noundef %0) #0 {
  %2 = alloca ptr, align 8
  %3 = alloca ptr, align 8
  store ptr %0, ptr %2, align 8
  call void @llvm.lifetime.start.p0(i64 8, ptr %3) #12
  %4 = load ptr, ptr %2, align 8
  %5 = call ptr @strrchr(ptr noundef %4, i32 noundef 46) #14
  store ptr %5, ptr %3, align 8
  %6 = load ptr, ptr %3, align 8
  %7 = icmp ne ptr %6, null
  br i1 %7, label %8, label %12

8:                                                ; preds = %1
  %9 = load ptr, ptr %3, align 8
  %10 = call i32 @strcmp(ptr noundef %9, ptr noundef @.str.108) #14
  %11 = icmp eq i32 %10, 0
  br label %12

12:                                               ; preds = %8, %1
  %13 = phi i1 [ false, %1 ], [ %11, %8 ]
  call void @llvm.lifetime.end.p0(i64 8, ptr %3) #12
  ret i1 %13
}

; Function Attrs: nounwind uwtable
define internal ptr @get_ext_ver_list(ptr noundef %0) #0 {
  %2 = alloca ptr, align 8
  %3 = alloca ptr, align 8
  %4 = alloca i32, align 4
  %5 = alloca ptr, align 8
  %6 = alloca ptr, align 8
  %7 = alloca ptr, align 8
  %8 = alloca ptr, align 8
  %9 = alloca ptr, align 8
  %10 = alloca ptr, align 8
  %11 = alloca ptr, align 8
  %12 = alloca i32, align 4
  store ptr %0, ptr %2, align 8
  call void @llvm.lifetime.start.p0(i64 8, ptr %3) #12
  store ptr null, ptr %3, align 8
  call void @llvm.lifetime.start.p0(i64 4, ptr %4) #12
  %13 = load ptr, ptr %2, align 8
  %14 = getelementptr inbounds nuw %struct.ExtensionControlFile, ptr %13, i32 0, i32 0
  %15 = load ptr, ptr %14, align 8
  %16 = call i64 @strlen(ptr noundef %15) #14
  %17 = trunc i64 %16 to i32
  store i32 %17, ptr %4, align 4
  call void @llvm.lifetime.start.p0(i64 8, ptr %5) #12
  call void @llvm.lifetime.start.p0(i64 8, ptr %6) #12
  call void @llvm.lifetime.start.p0(i64 8, ptr %7) #12
  %18 = load ptr, ptr %2, align 8
  %19 = call ptr @get_extension_script_directory(ptr noundef %18)
  store ptr %19, ptr %5, align 8
  %20 = load ptr, ptr %5, align 8
  %21 = call ptr @AllocateDir(ptr noundef %20)
  store ptr %21, ptr %6, align 8
  br label %22

22:                                               ; preds = %106, %104, %1
  %23 = load ptr, ptr %6, align 8
  %24 = load ptr, ptr %5, align 8
  %25 = call ptr @ReadDir(ptr noundef %23, ptr noundef %24)
  store ptr %25, ptr %7, align 8
  %26 = icmp ne ptr %25, null
  br i1 %26, label %27, label %107

27:                                               ; preds = %22
  call void @llvm.lifetime.start.p0(i64 8, ptr %8) #12
  call void @llvm.lifetime.start.p0(i64 8, ptr %9) #12
  call void @llvm.lifetime.start.p0(i64 8, ptr %10) #12
  call void @llvm.lifetime.start.p0(i64 8, ptr %11) #12
  %28 = load ptr, ptr %7, align 8
  %29 = getelementptr inbounds nuw %struct.dirent, ptr %28, i32 0, i32 4
  %30 = getelementptr inbounds [256 x i8], ptr %29, i64 0, i64 0
  %31 = call zeroext i1 @is_extension_script_filename(ptr noundef %30)
  br i1 %31, label %33, label %32

32:                                               ; preds = %27
  store i32 2, ptr %12, align 4
  br label %104, !llvm.loop !18

33:                                               ; preds = %27
  %34 = load ptr, ptr %7, align 8
  %35 = getelementptr inbounds nuw %struct.dirent, ptr %34, i32 0, i32 4
  %36 = getelementptr inbounds [256 x i8], ptr %35, i64 0, i64 0
  %37 = load ptr, ptr %2, align 8
  %38 = getelementptr inbounds nuw %struct.ExtensionControlFile, ptr %37, i32 0, i32 0
  %39 = load ptr, ptr %38, align 8
  %40 = load i32, ptr %4, align 4
  %41 = sext i32 %40 to i64
  %42 = call i32 @strncmp(ptr noundef %36, ptr noundef %39, i64 noundef %41) #14
  %43 = icmp ne i32 %42, 0
  br i1 %43, label %63, label %44

44:                                               ; preds = %33
  %45 = load ptr, ptr %7, align 8
  %46 = getelementptr inbounds nuw %struct.dirent, ptr %45, i32 0, i32 4
  %47 = load i32, ptr %4, align 4
  %48 = sext i32 %47 to i64
  %49 = getelementptr inbounds [256 x i8], ptr %46, i64 0, i64 %48
  %50 = load i8, ptr %49, align 1
  %51 = sext i8 %50 to i32
  %52 = icmp ne i32 %51, 45
  br i1 %52, label %63, label %53

53:                                               ; preds = %44
  %54 = load ptr, ptr %7, align 8
  %55 = getelementptr inbounds nuw %struct.dirent, ptr %54, i32 0, i32 4
  %56 = load i32, ptr %4, align 4
  %57 = add i32 %56, 1
  %58 = sext i32 %57 to i64
  %59 = getelementptr inbounds [256 x i8], ptr %55, i64 0, i64 %58
  %60 = load i8, ptr %59, align 1
  %61 = sext i8 %60 to i32
  %62 = icmp ne i32 %61, 45
  br i1 %62, label %63, label %64

63:                                               ; preds = %53, %44, %33
  store i32 2, ptr %12, align 4
  br label %104, !llvm.loop !18

64:                                               ; preds = %53
  %65 = load ptr, ptr %7, align 8
  %66 = getelementptr inbounds nuw %struct.dirent, ptr %65, i32 0, i32 4
  %67 = getelementptr inbounds [256 x i8], ptr %66, i64 0, i64 0
  %68 = load i32, ptr %4, align 4
  %69 = sext i32 %68 to i64
  %70 = getelementptr inbounds i8, ptr %67, i64 %69
  %71 = getelementptr inbounds i8, ptr %70, i64 2
  %72 = call ptr @pstrdup(ptr noundef %71)
  store ptr %72, ptr %8, align 8
  %73 = load ptr, ptr %8, align 8
  %74 = call ptr @strrchr(ptr noundef %73, i32 noundef 46) #14
  store i8 0, ptr %74, align 1
  %75 = load ptr, ptr %8, align 8
  %76 = call ptr @strstr(ptr noundef %75, ptr noundef @.str.10) #14
  store ptr %76, ptr %9, align 8
  %77 = load ptr, ptr %9, align 8
  %78 = icmp ne ptr %77, null
  br i1 %78, label %84, label %79

79:                                               ; preds = %64
  %80 = load ptr, ptr %8, align 8
  %81 = call ptr @get_ext_ver_info(ptr noundef %80, ptr noundef %3)
  store ptr %81, ptr %10, align 8
  %82 = load ptr, ptr %10, align 8
  %83 = getelementptr inbounds nuw %struct.ExtensionVersionInfo, ptr %82, i32 0, i32 2
  store i8 1, ptr %83, align 8
  store i32 2, ptr %12, align 4
  br label %104, !llvm.loop !18

84:                                               ; preds = %64
  %85 = load ptr, ptr %9, align 8
  store i8 0, ptr %85, align 1
  %86 = load ptr, ptr %9, align 8
  %87 = getelementptr inbounds i8, ptr %86, i64 2
  store ptr %87, ptr %9, align 8
  %88 = load ptr, ptr %9, align 8
  %89 = call ptr @strstr(ptr noundef %88, ptr noundef @.str.10) #14
  %90 = icmp ne ptr %89, null
  br i1 %90, label %91, label %92

91:                                               ; preds = %84
  store i32 2, ptr %12, align 4
  br label %104, !llvm.loop !18

92:                                               ; preds = %84
  %93 = load ptr, ptr %8, align 8
  %94 = call ptr @get_ext_ver_info(ptr noundef %93, ptr noundef %3)
  store ptr %94, ptr %10, align 8
  %95 = load ptr, ptr %9, align 8
  %96 = call ptr @get_ext_ver_info(ptr noundef %95, ptr noundef %3)
  store ptr %96, ptr %11, align 8
  %97 = load ptr, ptr %10, align 8
  %98 = getelementptr inbounds nuw %struct.ExtensionVersionInfo, ptr %97, i32 0, i32 1
  %99 = load ptr, ptr %98, align 8
  %100 = load ptr, ptr %11, align 8
  %101 = call ptr @lappend(ptr noundef %99, ptr noundef %100)
  %102 = load ptr, ptr %10, align 8
  %103 = getelementptr inbounds nuw %struct.ExtensionVersionInfo, ptr %102, i32 0, i32 1
  store ptr %101, ptr %103, align 8
  store i32 0, ptr %12, align 4
  br label %104

104:                                              ; preds = %92, %91, %79, %63, %32
  call void @llvm.lifetime.end.p0(i64 8, ptr %11) #12
  call void @llvm.lifetime.end.p0(i64 8, ptr %10) #12
  call void @llvm.lifetime.end.p0(i64 8, ptr %9) #12
  call void @llvm.lifetime.end.p0(i64 8, ptr %8) #12
  %105 = load i32, ptr %12, align 4
  switch i32 %105, label %111 [
    i32 0, label %106
    i32 2, label %22
  ]

106:                                              ; preds = %104
  br label %22, !llvm.loop !18

107:                                              ; preds = %22
  %108 = load ptr, ptr %6, align 8
  %109 = call i32 @FreeDir(ptr noundef %108)
  %110 = load ptr, ptr %3, align 8
  store i32 1, ptr %12, align 4
  call void @llvm.lifetime.end.p0(i64 8, ptr %7) #12
  call void @llvm.lifetime.end.p0(i64 8, ptr %6) #12
  call void @llvm.lifetime.end.p0(i64 8, ptr %5) #12
  call void @llvm.lifetime.end.p0(i64 4, ptr %4) #12
  call void @llvm.lifetime.end.p0(i64 8, ptr %3) #12
  ret ptr %110

111:                                              ; preds = %104
  unreachable
}