; Function Attrs: nounwind uwtable
define internal fastcc ptr @get_ext_ver_list(ptr noundef readonly captures(none) %0) unnamed_addr #0 {
  %2 = load ptr, ptr %0, align 8
  %3 = tail call i64 @strlen(ptr noundef nonnull dereferenceable(1) %2) #17
  %4 = tail call fastcc ptr @get_extension_script_directory(ptr noundef nonnull %0)
  %5 = tail call ptr @AllocateDir(ptr noundef %4) #15
  %6 = tail call ptr @ReadDir(ptr noundef %5, ptr noundef %4) #15
  %.not67 = icmp eq ptr %6, null
  br i1 %.not67, label %._crit_edge, label %.lr.ph

.lr.ph:                                           ; preds = %1
  %sext = shl i64 %3, 32
  %7 = ashr exact i64 %sext, 32
  %sext31 = add i64 %sext, 4294967296
  %8 = ashr exact i64 %sext31, 32
  br label %9

9:                                                ; preds = %.lr.ph, %is_extension_script_filename.exit.thread
  %10 = phi ptr [ %6, %.lr.ph ], [ %98, %is_extension_script_filename.exit.thread ]
  %.068 = phi ptr [ null, %.lr.ph ], [ %.1, %is_extension_script_filename.exit.thread ]
  %11 = getelementptr inbounds nuw i8, ptr %10, i64 19
  %12 = tail call ptr @strrchr(ptr noundef nonnull readonly dereferenceable(1) %11, i32 noundef 46) #17
  %.not.i = icmp eq ptr %12, null
  br i1 %.not.i, label %is_extension_script_filename.exit.thread, label %is_extension_script_filename.exit

is_extension_script_filename.exit:                ; preds = %9
  %13 = tail call i32 @strcmp(ptr noundef nonnull dereferenceable(1) %12, ptr noundef nonnull dereferenceable(5) @.str.108) #17
  %14 = icmp eq i32 %13, 0
  br i1 %14, label %15, label %is_extension_script_filename.exit.thread, !llvm.loop !15

15:                                               ; preds = %is_extension_script_filename.exit
  %16 = load ptr, ptr %0, align 8
  %17 = tail call i32 @strncmp(ptr noundef nonnull %11, ptr noundef %16, i64 noundef %7) #17
  %.not29 = icmp eq i32 %17, 0
  br i1 %.not29, label %18, label %is_extension_script_filename.exit.thread, !llvm.loop !15

18:                                               ; preds = %15
  %19 = getelementptr inbounds [256 x i8], ptr %11, i64 0, i64 %7
  %20 = load i8, ptr %19, align 1
  %.not30 = icmp eq i8 %20, 45
  br i1 %.not30, label %21, label %is_extension_script_filename.exit.thread, !llvm.loop !15

21:                                               ; preds = %18
  %22 = getelementptr inbounds [256 x i8], ptr %11, i64 0, i64 %8
  %23 = load i8, ptr %22, align 1
  %.not32 = icmp eq i8 %23, 45
  br i1 %.not32, label %24, label %is_extension_script_filename.exit.thread, !llvm.loop !15

24:                                               ; preds = %21
  %25 = getelementptr inbounds nuw i8, ptr %19, i64 2
  %26 = tail call ptr @pstrdup(ptr noundef nonnull %25) #15
  %27 = tail call ptr @strrchr(ptr noundef nonnull dereferenceable(1) %26, i32 noundef 46) #17
  store i8 0, ptr %27, align 1
  %28 = tail call ptr @strstr(ptr noundef nonnull dereferenceable(1) %26, ptr noundef nonnull dereferenceable(1) @.str.10) #17
  %.not33 = icmp eq ptr %28, null
  br i1 %.not33, label %29, label %51

29:                                               ; preds = %24
  %.not.i35 = icmp eq ptr %.068, null
  br i1 %.not.i35, label %._crit_edge.i, label %.lr.ph.i

.lr.ph.i:                                         ; preds = %29
  %30 = getelementptr inbounds nuw i8, ptr %.068, i64 4
  %31 = load i32, ptr %30, align 4
  %32 = icmp sgt i32 %31, 0
  br i1 %32, label %.lr.ph34.i, label %._crit_edge.i

.lr.ph34.i:                                       ; preds = %.lr.ph.i
  %33 = getelementptr inbounds nuw i8, ptr %.068, i64 16
  %34 = load ptr, ptr %33, align 8
  %wide.trip.count.i = zext nneg i32 %31 to i64
  br label %36

35:                                               ; preds = %36
  %indvars.iv.next.i = add nuw nsw i64 %indvars.iv.i, 1
  %exitcond.not.i = icmp eq i64 %indvars.iv.next.i, %wide.trip.count.i
  br i1 %exitcond.not.i, label %._crit_edge.i, label %36

36:                                               ; preds = %35, %.lr.ph34.i
  %indvars.iv.i = phi i64 [ 0, %.lr.ph34.i ], [ %indvars.iv.next.i, %35 ]
  %37 = getelementptr inbounds nuw %union.ListCell, ptr %34, i64 %indvars.iv.i
  %38 = load ptr, ptr %37, align 8
  %39 = load ptr, ptr %38, align 8
  %40 = tail call i32 @strcmp(ptr noundef nonnull dereferenceable(1) %39, ptr noundef nonnull dereferenceable(1) %26) #17
  %41 = icmp eq i32 %40, 0
  br i1 %41, label %get_ext_ver_info.exit, label %35

._crit_edge.i:                                    ; preds = %35, %.lr.ph.i, %29
  %42 = tail call ptr @palloc(i64 noundef 32) #15
  %43 = tail call ptr @pstrdup(ptr noundef nonnull %26) #15
  store ptr %43, ptr %42, align 8
  %44 = getelementptr inbounds nuw i8, ptr %42, i64 8
  store ptr null, ptr %44, align 8
  %45 = getelementptr inbounds nuw i8, ptr %42, i64 16
  store i8 0, ptr %45, align 8
  %46 = getelementptr inbounds nuw i8, ptr %42, i64 17
  store i8 0, ptr %46, align 1
  %47 = getelementptr inbounds nuw i8, ptr %42, i64 20
  store i32 2147483647, ptr %47, align 4
  %48 = getelementptr inbounds nuw i8, ptr %42, i64 24
  store ptr null, ptr %48, align 8
  %49 = tail call ptr @lappend(ptr noundef %.068, ptr noundef nonnull %42) #15
  br label %get_ext_ver_info.exit

get_ext_ver_info.exit:                            ; preds = %36, %._crit_edge.i
  %.2 = phi ptr [ %49, %._crit_edge.i ], [ %.068, %36 ]
  %.1.i = phi ptr [ %42, %._crit_edge.i ], [ %38, %36 ]
  %50 = getelementptr inbounds nuw i8, ptr %.1.i, i64 16
  store i8 1, ptr %50, align 8
  br label %is_extension_script_filename.exit.thread, !llvm.loop !15

51:                                               ; preds = %24
  store i8 0, ptr %28, align 1
  %52 = getelementptr inbounds nuw i8, ptr %28, i64 2
  %53 = tail call ptr @strstr(ptr noundef nonnull dereferenceable(1) %52, ptr noundef nonnull dereferenceable(1) @.str.10) #17
  %.not34 = icmp eq ptr %53, null
  br i1 %.not34, label %54, label %is_extension_script_filename.exit.thread, !llvm.loop !15

54:                                               ; preds = %51
  %.not.i36 = icmp eq ptr %.068, null
  br i1 %.not.i36, label %._crit_edge.i38, label %.lr.ph.i37

.lr.ph.i37:                                       ; preds = %54
  %55 = getelementptr inbounds nuw i8, ptr %.068, i64 4
  %56 = load i32, ptr %55, align 4
  %57 = icmp sgt i32 %56, 0
  br i1 %57, label %.lr.ph34.i40, label %._crit_edge.i38

.lr.ph34.i40:                                     ; preds = %.lr.ph.i37
  %58 = getelementptr inbounds nuw i8, ptr %.068, i64 16
  %59 = load ptr, ptr %58, align 8
  %wide.trip.count.i41 = zext nneg i32 %56 to i64
  br label %61

60:                                               ; preds = %61
  %indvars.iv.next.i43 = add nuw nsw i64 %indvars.iv.i42, 1
  %exitcond.not.i44 = icmp eq i64 %indvars.iv.next.i43, %wide.trip.count.i41
  br i1 %exitcond.not.i44, label %._crit_edge.i38, label %61

61:                                               ; preds = %60, %.lr.ph34.i40
  %indvars.iv.i42 = phi i64 [ 0, %.lr.ph34.i40 ], [ %indvars.iv.next.i43, %60 ]
  %62 = getelementptr inbounds nuw %union.ListCell, ptr %59, i64 %indvars.iv.i42
  %63 = load ptr, ptr %62, align 8
  %64 = load ptr, ptr %63, align 8
  %65 = tail call i32 @strcmp(ptr noundef nonnull dereferenceable(1) %64, ptr noundef nonnull dereferenceable(1) %26) #17
  %66 = icmp eq i32 %65, 0
  br i1 %66, label %get_ext_ver_info.exit45, label %60

._crit_edge.i38:                                  ; preds = %60, %.lr.ph.i37, %54
  %67 = tail call ptr @palloc(i64 noundef 32) #15
  %68 = tail call ptr @pstrdup(ptr noundef nonnull %26) #15
  store ptr %68, ptr %67, align 8
  %69 = getelementptr inbounds nuw i8, ptr %67, i64 8
  store ptr null, ptr %69, align 8
  %70 = getelementptr inbounds nuw i8, ptr %67, i64 16
  store i8 0, ptr %70, align 8
  %71 = getelementptr inbounds nuw i8, ptr %67, i64 17
  store i8 0, ptr %71, align 1
  %72 = getelementptr inbounds nuw i8, ptr %67, i64 20
  store i32 2147483647, ptr %72, align 4
  %73 = getelementptr inbounds nuw i8, ptr %67, i64 24
  store ptr null, ptr %73, align 8
  %74 = tail call ptr @lappend(ptr noundef %.068, ptr noundef nonnull %67) #15
  br label %get_ext_ver_info.exit45

get_ext_ver_info.exit45:                          ; preds = %61, %._crit_edge.i38
  %.3 = phi ptr [ %74, %._crit_edge.i38 ], [ %.068, %61 ]
  %.1.i39 = phi ptr [ %67, %._crit_edge.i38 ], [ %63, %61 ]
  %.not.i46 = icmp eq ptr %.3, null
  br i1 %.not.i46, label %._crit_edge.i48, label %.lr.ph.i47

.lr.ph.i47:                                       ; preds = %get_ext_ver_info.exit45
  %75 = getelementptr inbounds nuw i8, ptr %.3, i64 4
  %76 = load i32, ptr %75, align 4
  %77 = icmp sgt i32 %76, 0
  br i1 %77, label %.lr.ph34.i50, label %._crit_edge.i48

.lr.ph34.i50:                                     ; preds = %.lr.ph.i47
  %78 = getelementptr inbounds nuw i8, ptr %.3, i64 16
  %79 = load ptr, ptr %78, align 8
  %wide.trip.count.i51 = zext nneg i32 %76 to i64
  br label %81

80:                                               ; preds = %81
  %indvars.iv.next.i53 = add nuw nsw i64 %indvars.iv.i52, 1
  %exitcond.not.i54 = icmp eq i64 %indvars.iv.next.i53, %wide.trip.count.i51
  br i1 %exitcond.not.i54, label %._crit_edge.i48, label %81

81:                                               ; preds = %80, %.lr.ph34.i50
  %indvars.iv.i52 = phi i64 [ 0, %.lr.ph34.i50 ], [ %indvars.iv.next.i53, %80 ]
  %82 = getelementptr inbounds nuw %union.ListCell, ptr %79, i64 %indvars.iv.i52
  %83 = load ptr, ptr %82, align 8
  %84 = load ptr, ptr %83, align 8
  %85 = tail call i32 @strcmp(ptr noundef nonnull dereferenceable(1) %84, ptr noundef nonnull dereferenceable(1) %52) #17
  %86 = icmp eq i32 %85, 0
  br i1 %86, label %get_ext_ver_info.exit55, label %80

._crit_edge.i48:                                  ; preds = %80, %.lr.ph.i47, %get_ext_ver_info.exit45
  %87 = tail call ptr @palloc(i64 noundef 32) #15
  %88 = tail call ptr @pstrdup(ptr noundef nonnull %52) #15
  store ptr %88, ptr %87, align 8
  %89 = getelementptr inbounds nuw i8, ptr %87, i64 8
  store ptr null, ptr %89, align 8
  %90 = getelementptr inbounds nuw i8, ptr %87, i64 16
  store i8 0, ptr %90, align 8
  %91 = getelementptr inbounds nuw i8, ptr %87, i64 17
  store i8 0, ptr %91, align 1
  %92 = getelementptr inbounds nuw i8, ptr %87, i64 20
  store i32 2147483647, ptr %92, align 4
  %93 = getelementptr inbounds nuw i8, ptr %87, i64 24
  store ptr null, ptr %93, align 8
  %94 = tail call ptr @lappend(ptr noundef %.3, ptr noundef nonnull %87) #15
  br label %get_ext_ver_info.exit55

get_ext_ver_info.exit55:                          ; preds = %81, %._crit_edge.i48
  %.4 = phi ptr [ %94, %._crit_edge.i48 ], [ %.3, %81 ]
  %.1.i49 = phi ptr [ %87, %._crit_edge.i48 ], [ %83, %81 ]
  %95 = getelementptr inbounds nuw i8, ptr %.1.i39, i64 8
  %96 = load ptr, ptr %95, align 8
  %97 = tail call ptr @lappend(ptr noundef %96, ptr noundef nonnull %.1.i49) #15
  store ptr %97, ptr %95, align 8
  br label %is_extension_script_filename.exit.thread

is_extension_script_filename.exit.thread:         ; preds = %9, %51, %15, %18, %21, %is_extension_script_filename.exit, %get_ext_ver_info.exit55, %get_ext_ver_info.exit
  %.1 = phi ptr [ %.2, %get_ext_ver_info.exit ], [ %.4, %get_ext_ver_info.exit55 ], [ %.068, %51 ], [ %.068, %21 ], [ %.068, %18 ], [ %.068, %15 ], [ %.068, %is_extension_script_filename.exit ], [ %.068, %9 ]
  %98 = tail call ptr @ReadDir(ptr noundef %5, ptr noundef %4) #15
  %.not = icmp eq ptr %98, null
  br i1 %.not, label %._crit_edge, label %9

._crit_edge:                                      ; preds = %is_extension_script_filename.exit.thread, %1
  %.0.lcssa = phi ptr [ null, %1 ], [ %.1, %is_extension_script_filename.exit.thread ]
  %99 = tail call i32 @FreeDir(ptr noundef %5) #15
  ret ptr %.0.lcssa
}